; Function Attrs: mustprogress uwtable
define noundef nonnull align 8 dereferenceable(8) ptr @_ZN8proxygenlsERSoRKNS_9ByteEventE(ptr noundef nonnull returned align 8 dereferenceable(8) %os, ptr nocapture noundef nonnull readonly align 8 dereferenceable(64) %be) local_unnamed_addr #0 personality ptr @__gxx_personality_v0 {
entry:
  %ref.tmp = alloca %"class.std::__cxx11::basic_string", align 8
  %ref.tmp1 = alloca i64, align 8
  %eventType_ = getelementptr inbounds i8, ptr %be, i64 24
  %bf.load = load i64, ptr %eventType_, align 8
  %bf.cast = and i64 %bf.load, 7
  %arrayidx = getelementptr inbounds [6 x ptr], ptr @_ZN8proxygenL12kTypeStringsE, i64 0, i64 %bf.cast
  %bf.lshr = lshr i64 %bf.load, 5
  store i64 %bf.lshr, ptr %ref.tmp1, align 8
  call void @_ZN5folly2toINSt7__cxx1112basic_stringIcSt11char_traitsIcESaIcEEEJA2_cPKcA3_cmS7_EEENSt9enable_ifIXaasr12IsSomeStringIT_EE5valueoonesZT0_Li1Entsr3std7is_sameISC_19__type_pack_elementIXmisPvDpT0_ELi1EEJvSF_EEEE5valueESC_E4typeEDpRKSE_(ptr nonnull sret(%"class.std::__cxx11::basic_string") align 8 %ref.tmp, ptr noundef nonnull align 1 dereferenceable(2) @.str, ptr noundef nonnull align 8 dereferenceable(8) %arrayidx, ptr noundef nonnull align 1 dereferenceable(3) @.str.1, ptr noundef nonnull align 8 dereferenceable(8) %ref.tmp1, ptr noundef nonnull align 1 dereferenceable(2) @.str.2)
  %call = invoke noundef nonnull align 8 dereferenceable(8) ptr @_ZStlsIcSt11char_traitsIcESaIcEERSt13basic_ostreamIT_T0_ES7_RKNSt7__cxx1112basic_stringIS4_S5_T1_EE(ptr noundef nonnull align 8 dereferenceable(8) %os, ptr noundef nonnull align 8 dereferenceable(32) %ref.tmp)
          to label %invoke.cont unwind label %lpad

invoke.cont:                                      ; preds = %entry
  call void @_ZNSt7__cxx1112basic_stringIcSt11char_traitsIcESaIcEED1Ev(ptr noundef nonnull align 8 dereferenceable(32) %ref.tmp) #8
  ret ptr %os

lpad:                                             ; preds = %entry
  %0 = landingpad { ptr, i32 }
          cleanup
  call void @_ZNSt7__cxx1112basic_stringIcSt11char_traitsIcESaIcEED1Ev(ptr noundef nonnull align 8 dereferenceable(32) %ref.tmp) #8
  resume { ptr, i32 } %0
}